target datalayout = "e-m:e-p270:32:32-p271:32:32-p272:64:64-i64:64-i128:128-f80:128-n8:16:32:64-S128"
target triple = "x86_64-pc-linux-gnu"

%struct.ForEachState = type { ptr, i32 }
%struct.Node = type { i32 }
%struct.List = type { i32, i32, i32, ptr, [0 x %union.ListCell] }
%union.ListCell = type { ptr }
%struct.RelOptInfo = type { i32, i32, ptr, double, i8, i8, i8, ptr, ptr, ptr, ptr, ptr, ptr, ptr, ptr, ptr, ptr, i32, i32, i32, i16, i16, ptr, ptr, ptr, ptr, ptr, ptr, ptr, ptr, i32, double, double, ptr, ptr, ptr, i32, i32, i32, i32, i8, ptr, ptr, ptr, ptr, ptr, %struct.QualCost, i32, ptr, i8, i8, ptr, ptr, ptr, ptr, i32, ptr, i8, ptr, ptr, ptr, ptr, ptr, ptr }
%struct.QualCost = type { double, double }
%struct.Var = type { %struct.Expr, i32, i16, i32, i32, i32, ptr, i32, i32, i32, i16, i32 }
%struct.Expr = type { i32 }
%struct.PlaceHolderInfo = type { i32, i32, ptr, ptr, ptr, ptr, i32 }

@.str = private unnamed_addr constant [27 x i8] c"unrecognized node type: %d\00", align 1
@.str.1 = private unnamed_addr constant [12 x i8] c"initsplan.c\00", align 1
@__func__.add_vars_to_attr_needed = private unnamed_addr constant [24 x i8] c"add_vars_to_attr_needed\00", align 1

; Function Attrs: nounwind uwtable
define dso_local void @add_vars_to_attr_needed(ptr noundef %0, ptr noundef %1, ptr noundef %2) #0 {
  %4 = alloca ptr, align 8
  %5 = alloca ptr, align 8
  %6 = alloca ptr, align 8
  %7 = alloca ptr, align 8
  %8 = alloca %struct.ForEachState, align 8
  %9 = alloca i32, align 4
  %10 = alloca ptr, align 8
  %11 = alloca ptr, align 8
  %12 = alloca ptr, align 8
  %13 = alloca i32, align 4
  %14 = alloca ptr, align 8
  %15 = alloca ptr, align 8
  store ptr %0, ptr %4, align 8
  store ptr %1, ptr %5, align 8
  store ptr %2, ptr %6, align 8
  call void @llvm.lifetime.start.p0(i64 8, ptr %7) #6
  call void @llvm.lifetime.start.p0(i64 16, ptr %8) #6
  %16 = getelementptr inbounds nuw %struct.ForEachState, ptr %8, i32 0, i32 0
  %17 = load ptr, ptr %5, align 8
  store ptr %17, ptr %16, align 8
  %18 = getelementptr inbounds nuw %struct.ForEachState, ptr %8, i32 0, i32 1
  store i32 0, ptr %18, align 8
  %19 = getelementptr i8, ptr %8, i64 12
  call void @llvm.memset.p0.i64(ptr align 4 %19, i8 0, i64 4, i1 false)
  br label %20

20:                                               ; preds = %131, %3
  %21 = getelementptr inbounds nuw %struct.ForEachState, ptr %8, i32 0, i32 0
  %22 = load ptr, ptr %21, align 8
  %23 = icmp ne ptr %22, null
  br i1 %23, label %24, label %41

24:                                               ; preds = %20
  %25 = getelementptr inbounds nuw %struct.ForEachState, ptr %8, i32 0, i32 1
  %26 = load i32, ptr %25, align 8
  %27 = getelementptr inbounds nuw %struct.ForEachState, ptr %8, i32 0, i32 0
  %28 = load ptr, ptr %27, align 8
  %29 = getelementptr inbounds nuw %struct.List, ptr %28, i32 0, i32 1
  %30 = load i32, ptr %29, align 4
  %31 = icmp slt i32 %26, %30
  br i1 %31, label %32, label %41

32:                                               ; preds = %24
  %33 = getelementptr inbounds nuw %struct.ForEachState, ptr %8, i32 0, i32 0
  %34 = load ptr, ptr %33, align 8
  %35 = getelementptr inbounds nuw %struct.List, ptr %34, i32 0, i32 3
  %36 = load ptr, ptr %35, align 8
  %37 = getelementptr inbounds nuw %struct.ForEachState, ptr %8, i32 0, i32 1
  %38 = load i32, ptr %37, align 8
  %39 = sext i32 %38 to i64
  %40 = getelementptr inbounds %union.ListCell, ptr %36, i64 %39
  store ptr %40, ptr %7, align 8
  br label %42

41:                                               ; preds = %24, %20
  store ptr null, ptr %7, align 8
  br label %42

42:                                               ; preds = %41, %32
  %43 = phi i32 [ 1, %32 ], [ 0, %41 ]
  %44 = icmp ne i32 %43, 0
  br i1 %44, label %46, label %45

45:                                               ; preds = %42
  store i32 2, ptr %9, align 4
  call void @llvm.lifetime.end.p0(i64 16, ptr %8) #6
  br label %135

46:                                               ; preds = %42
  call void @llvm.lifetime.start.p0(i64 8, ptr %10) #6
  %47 = load ptr, ptr %7, align 8
  %48 = load ptr, ptr %47, align 8
  store ptr %48, ptr %10, align 8
  %49 = load ptr, ptr %10, align 8
  %50 = getelementptr inbounds nuw %struct.Node, ptr %49, i32 0, i32 0
  %51 = load i32, ptr %50, align 4
  %52 = icmp eq i32 %51, 6
  br i1 %52, label %53, label %95

53:                                               ; preds = %46
  call void @llvm.lifetime.start.p0(i64 8, ptr %11) #6
  %54 = load ptr, ptr %10, align 8
  store ptr %54, ptr %11, align 8
  call void @llvm.lifetime.start.p0(i64 8, ptr %12) #6
  %55 = load ptr, ptr %4, align 8
  %56 = load ptr, ptr %11, align 8
  %57 = getelementptr inbounds nuw %struct.Var, ptr %56, i32 0, i32 1
  %58 = load i32, ptr %57, align 4
  %59 = call ptr @find_base_rel(ptr noundef %55, i32 noundef %58)
  store ptr %59, ptr %12, align 8
  call void @llvm.lifetime.start.p0(i64 4, ptr %13) #6
  %60 = load ptr, ptr %11, align 8
  %61 = getelementptr inbounds nuw %struct.Var, ptr %60, i32 0, i32 2
  %62 = load i16, ptr %61, align 8
  %63 = sext i16 %62 to i32
  store i32 %63, ptr %13, align 4
  %64 = load ptr, ptr %6, align 8
  %65 = load ptr, ptr %12, align 8
  %66 = getelementptr inbounds nuw %struct.RelOptInfo, ptr %65, i32 0, i32 2
  %67 = load ptr, ptr %66, align 8
  %68 = call zeroext i1 @bms_is_subset(ptr noundef %64, ptr noundef %67)
  br i1 %68, label %69, label %70

69:                                               ; preds = %53
  store i32 4, ptr %9, align 4
  br label %92

70:                                               ; preds = %53
  %71 = load ptr, ptr %12, align 8
  %72 = getelementptr inbounds nuw %struct.RelOptInfo, ptr %71, i32 0, i32 20
  %73 = load i16, ptr %72, align 4
  %74 = sext i16 %73 to i32
  %75 = load i32, ptr %13, align 4
  %76 = sub i32 %75, %74
  store i32 %76, ptr %13, align 4
  %77 = load ptr, ptr %12, align 8
  %78 = getelementptr inbounds nuw %struct.RelOptInfo, ptr %77, i32 0, i32 22
  %79 = load ptr, ptr %78, align 8
  %80 = load i32, ptr %13, align 4
  %81 = sext i32 %80 to i64
  %82 = getelementptr inbounds ptr, ptr %79, i64 %81
  %83 = load ptr, ptr %82, align 8
  %84 = load ptr, ptr %6, align 8
  %85 = call ptr @bms_add_members(ptr noundef %83, ptr noundef %84)
  %86 = load ptr, ptr %12, align 8
  %87 = getelementptr inbounds nuw %struct.RelOptInfo, ptr %86, i32 0, i32 22
  %88 = load ptr, ptr %87, align 8
  %89 = load i32, ptr %13, align 4
  %90 = sext i32 %89 to i64
  %91 = getelementptr inbounds ptr, ptr %88, i64 %90
  store ptr %85, ptr %91, align 8
  store i32 0, ptr %9, align 4
  br label %92

92:                                               ; preds = %70, %69
  call void @llvm.lifetime.end.p0(i64 4, ptr %13) #6
  call void @llvm.lifetime.end.p0(i64 8, ptr %12) #6
  call void @llvm.lifetime.end.p0(i64 8, ptr %11) #6
  %93 = load i32, ptr %9, align 4
  switch i32 %93, label %128 [
    i32 0, label %94
  ]

94:                                               ; preds = %92
  br label %127

95:                                               ; preds = %46
  %96 = load ptr, ptr %10, align 8
  %97 = getelementptr inbounds nuw %struct.Node, ptr %96, i32 0, i32 0
  %98 = load i32, ptr %97, align 4
  %99 = icmp eq i32 %98, 318
  br i1 %99, label %100, label %112

100:                                              ; preds = %95
  call void @llvm.lifetime.start.p0(i64 8, ptr %14) #6
  %101 = load ptr, ptr %10, align 8
  store ptr %101, ptr %14, align 8
  call void @llvm.lifetime.start.p0(i64 8, ptr %15) #6
  %102 = load ptr, ptr %4, align 8
  %103 = load ptr, ptr %14, align 8
  %104 = call ptr @find_placeholder_info(ptr noundef %102, ptr noundef %103)
  store ptr %104, ptr %15, align 8
  %105 = load ptr, ptr %15, align 8
  %106 = getelementptr inbounds nuw %struct.PlaceHolderInfo, ptr %105, i32 0, i32 5
  %107 = load ptr, ptr %106, align 8
  %108 = load ptr, ptr %6, align 8
  %109 = call ptr @bms_add_members(ptr noundef %107, ptr noundef %108)
  %110 = load ptr, ptr %15, align 8
  %111 = getelementptr inbounds nuw %struct.PlaceHolderInfo, ptr %110, i32 0, i32 5
  store ptr %109, ptr %111, align 8
  call void @llvm.lifetime.end.p0(i64 8, ptr %15) #6
  call void @llvm.lifetime.end.p0(i64 8, ptr %14) #6
  br label %126

112:                                              ; preds = %95
  br label %113

113:                                              ; preds = %112
  br i1 true, label %114, label %116

114:                                              ; preds = %113
  %115 = call zeroext i1 @errstart_cold(i32 noundef 21, ptr noundef null) #7
  br i1 %115, label %118, label %123

116:                                              ; preds = %113
  %117 = call zeroext i1 @errstart(i32 noundef 21, ptr noundef null)
  br i1 %117, label %118, label %123

118:                                              ; preds = %116, %114
  %119 = load ptr, ptr %10, align 8
  %120 = getelementptr inbounds nuw %struct.Node, ptr %119, i32 0, i32 0
  %121 = load i32, ptr %120, align 4
  %122 = call i32 (ptr, ...) @errmsg_internal(ptr noundef @.str, i32 noundef %121)
  call void @errfinish(ptr noundef @.str.1, i32 noundef 386, ptr noundef @__func__.add_vars_to_attr_needed)
  br label %123

123:                                              ; preds = %118, %116, %114
  unreachable

124:                                              ; No predecessors!
  br label %125

125:                                              ; preds = %124
  br label %126

126:                                              ; preds = %125, %100
  br label %127

127:                                              ; preds = %126, %94
  store i32 0, ptr %9, align 4
  br label %128

128:                                              ; preds = %127, %92
  call void @llvm.lifetime.end.p0(i64 8, ptr %10) #6
  %129 = load i32, ptr %9, align 4
  switch i32 %129, label %136 [
    i32 0, label %130
    i32 4, label %131
  ]

130:                                              ; preds = %128
  br label %131

131:                                              ; preds = %130, %128
  %132 = getelementptr inbounds nuw %struct.ForEachState, ptr %8, i32 0, i32 1
  %133 = load i32, ptr %132, align 8
  %134 = add i32 %133, 1
  store i32 %134, ptr %132, align 8
  br label %20, !llvm.loop !10

135:                                              ; preds = %45
  call void @llvm.lifetime.end.p0(i64 8, ptr %7) #6
  ret void

136:                                              ; preds = %128
  unreachable
}