; Function Attrs: nounwind uwtable
define dso_local void @add_vars_to_attr_needed(ptr noundef %0, ptr noundef readonly captures(address_is_null) %1, ptr noundef %2) local_unnamed_addr #0 {
  %.not = icmp eq ptr %1, null
  br i1 %.not, label %._crit_edge, label %.lr.ph

.lr.ph:                                           ; preds = %3
  %4 = getelementptr inbounds nuw i8, ptr %1, i64 4
  %5 = getelementptr inbounds nuw i8, ptr %1, i64 16
  %6 = load i32, ptr %4, align 4
  %7 = icmp sgt i32 %6, 0
  br i1 %7, label %.lr.ph37, label %._crit_edge

._crit_edge:                                      ; preds = %.critedge, %.lr.ph, %3
  ret void

.lr.ph37:                                         ; preds = %.lr.ph, %.critedge
  %indvars.iv = phi i64 [ %indvars.iv.next, %.critedge ], [ 0, %.lr.ph ]
  %8 = load ptr, ptr %5, align 8
  %9 = getelementptr inbounds nuw %union.ListCell, ptr %8, i64 %indvars.iv
  %10 = load ptr, ptr %9, align 8
  %11 = load i32, ptr %10, align 4
  switch i32 %11, label %.split [
    i32 6, label %12
    i32 318, label %34
  ]

12:                                               ; preds = %.lr.ph37
  %13 = getelementptr inbounds nuw i8, ptr %10, i64 4
  %14 = load i32, ptr %13, align 4
  %15 = tail call ptr @find_base_rel(ptr noundef %0, i32 noundef %14) #7
  %16 = getelementptr inbounds nuw i8, ptr %10, i64 8
  %17 = load i16, ptr %16, align 8
  %18 = getelementptr inbounds nuw i8, ptr %15, i64 8
  %19 = load ptr, ptr %18, align 8
  %20 = tail call zeroext i1 @bms_is_subset(ptr noundef %2, ptr noundef %19) #7
  br i1 %20, label %.critedge, label %21

21:                                               ; preds = %12
  %22 = sext i16 %17 to i64
  %23 = getelementptr inbounds nuw i8, ptr %15, i64 124
  %24 = load i16, ptr %23, align 4
  %25 = sext i16 %24 to i64
  %26 = sub nsw i64 %22, %25
  %27 = getelementptr inbounds nuw i8, ptr %15, i64 128
  %28 = load ptr, ptr %27, align 8
  %29 = getelementptr inbounds ptr, ptr %28, i64 %26
  %30 = load ptr, ptr %29, align 8
  %31 = tail call ptr @bms_add_members(ptr noundef %30, ptr noundef %2) #7
  %32 = load ptr, ptr %27, align 8
  %33 = getelementptr inbounds ptr, ptr %32, i64 %26
  store ptr %31, ptr %33, align 8
  br label %.critedge

34:                                               ; preds = %.lr.ph37
  %35 = tail call ptr @find_placeholder_info(ptr noundef %0, ptr noundef nonnull %10) #7
  %36 = getelementptr inbounds nuw i8, ptr %35, i64 32
  %37 = load ptr, ptr %36, align 8
  %38 = tail call ptr @bms_add_members(ptr noundef %37, ptr noundef %2) #7
  store ptr %38, ptr %36, align 8
  br label %.critedge

.split:                                           ; preds = %.lr.ph37
  %39 = tail call zeroext i1 @errstart_cold(i32 noundef 21, ptr noundef null) #8
  tail call void @llvm.assume(i1 %39)
  %40 = load i32, ptr %10, align 4
  %41 = tail call i32 (ptr, ...) @errmsg_internal(ptr noundef nonnull @.str, i32 noundef %40) #7
  tail call void @errfinish(ptr noundef nonnull @.str.1, i32 noundef 386, ptr noundef nonnull @__func__.add_vars_to_attr_needed) #7
  unreachable

.critedge:                                        ; preds = %21, %12, %34
  %indvars.iv.next = add nuw nsw i64 %indvars.iv, 1
  %42 = load i32, ptr %4, align 4
  %43 = sext i32 %42 to i64
  %44 = icmp slt i64 %indvars.iv.next, %43
  br i1 %44, label %.lr.ph37, label %._crit_edge
}